target datalayout = "e-m:e-p270:32:32-p271:32:32-p272:64:64-i64:64-i128:128-f80:128-n8:16:32:64-S128"
target triple = "x86_64-pc-linux-gnu"

%struct.IndexVacuumInfo = type { ptr, ptr, i8, i8, i8, i32, double, ptr }
%struct.IndexBulkDeleteResult = type { i32, i8, double, double, i32, i32, i32 }

; Function Attrs: nounwind uwtable
define dso_local ptr @hashvacuumcleanup(ptr noundef %0, ptr noundef %1) #0 {
  %3 = alloca ptr, align 8
  %4 = alloca ptr, align 8
  %5 = alloca ptr, align 8
  %6 = alloca ptr, align 8
  %7 = alloca i32, align 4
  %8 = alloca i32, align 4
  store ptr %0, ptr %4, align 8
  store ptr %1, ptr %5, align 8
  call void @llvm.lifetime.start.p0(i64 8, ptr %6) #6
  %9 = load ptr, ptr %4, align 8
  %10 = getelementptr inbounds nuw %struct.IndexVacuumInfo, ptr %9, i32 0, i32 0
  %11 = load ptr, ptr %10, align 8
  store ptr %11, ptr %6, align 8
  call void @llvm.lifetime.start.p0(i64 4, ptr %7) #6
  %12 = load ptr, ptr %5, align 8
  %13 = icmp eq ptr %12, null
  br i1 %13, label %14, label %15

14:                                               ; preds = %2
  store ptr null, ptr %3, align 8
  store i32 1, ptr %8, align 4
  br label %22

15:                                               ; preds = %2
  %16 = load ptr, ptr %6, align 8
  %17 = call i32 @RelationGetNumberOfBlocksInFork(ptr noundef %16, i32 noundef 0)
  store i32 %17, ptr %7, align 4
  %18 = load i32, ptr %7, align 4
  %19 = load ptr, ptr %5, align 8
  %20 = getelementptr inbounds nuw %struct.IndexBulkDeleteResult, ptr %19, i32 0, i32 0
  store i32 %18, ptr %20, align 8
  %21 = load ptr, ptr %5, align 8
  store ptr %21, ptr %3, align 8
  store i32 1, ptr %8, align 4
  br label %22

22:                                               ; preds = %15, %14
  call void @llvm.lifetime.end.p0(i64 4, ptr %7) #6
  call void @llvm.lifetime.end.p0(i64 8, ptr %6) #6
  %23 = load ptr, ptr %3, align 8
  ret ptr %23
}