; Function Attrs: nounwind uwtable
define dso_local noundef ptr @hashvacuumcleanup(ptr noundef readonly captures(none) %0, ptr noundef returned writeonly captures(address_is_null, ret: address, provenance) %1) #0 {
  %3 = icmp eq ptr %1, null
  br i1 %3, label %7, label %4

4:                                                ; preds = %2
  %5 = load ptr, ptr %0, align 8
  %6 = tail call i32 @RelationGetNumberOfBlocksInFork(ptr noundef %5, i32 noundef 0) #9
  store i32 %6, ptr %1, align 8
  br label %7

7:                                                ; preds = %2, %4
  ret ptr %1
}